target datalayout = "e-m:e-p270:32:32-p271:32:32-p272:64:64-i64:64-i128:128-f80:128-n8:16:32:64-S128"
target triple = "x86_64-pc-linux-gnu"

%struct.SDL_AudioDriver = type { ptr, ptr, %struct.SDL_AudioDriverImpl, ptr, ptr, ptr, i32, i32, %struct.SDL_PendingAudioDeviceEvent, ptr, %struct.SDL_AtomicInt, %struct.SDL_AtomicInt, %struct.SDL_AtomicInt }
%struct.SDL_AudioDriverImpl = type { ptr, ptr, ptr, ptr, ptr, ptr, ptr, ptr, ptr, ptr, ptr, ptr, ptr, ptr, i8, i8, i8, i8 }
%struct.SDL_PendingAudioDeviceEvent = type { i32, i32, ptr }
%struct.SDL_AtomicInt = type { i32 }
%struct.SDL_AudioSpec = type { i32, i32, i32 }
%struct.SDL_AudioDevice = type { ptr, ptr, %struct.SDL_AtomicInt, ptr, ptr, ptr, ptr, ptr, ptr, ptr, i32, ptr, %struct.SDL_AudioSpec, i32, ptr, %struct.SDL_AudioSpec, i32, i32, %struct.SDL_AtomicInt, %struct.SDL_AtomicInt, i8, i8, ptr, ptr, ptr, i32, ptr, i8, ptr, ptr }

@current_audio = internal global %struct.SDL_AudioDriver zeroinitializer, align 8

; Function Attrs: nounwind uwtable
define hidden void @SDL_AudioThreadFinalize(ptr noundef %0) #0 {
  %2 = alloca ptr, align 8
  store ptr %0, ptr %2, align 8
  ret void
}

; Function Attrs: nounwind uwtable
define hidden void @SDL_PlaybackAudioThreadShutdown(ptr noundef %0) #0 {
  %2 = alloca ptr, align 8
  %3 = alloca i32, align 4
  store ptr %0, ptr %2, align 8
  br label %4

4:                                                ; preds = %1
  br label %5

5:                                                ; preds = %4
  call void @llvm.lifetime.start.p0(i64 4, ptr %3) #6
  %6 = load ptr, ptr %2, align 8
  %7 = getelementptr inbounds nuw %struct.SDL_AudioDevice, ptr %6, i32 0, i32 13
  %8 = load i32, ptr %7, align 4
  %9 = load ptr, ptr %2, align 8
  %10 = getelementptr inbounds nuw %struct.SDL_AudioDevice, ptr %9, i32 0, i32 12
  %11 = getelementptr inbounds nuw %struct.SDL_AudioSpec, ptr %10, i32 0, i32 0
  %12 = load i32, ptr %11, align 8
  %13 = and i32 %12, 255
  %14 = udiv i32 %13, 8
  %15 = load ptr, ptr %2, align 8
  %16 = getelementptr inbounds nuw %struct.SDL_AudioDevice, ptr %15, i32 0, i32 12
  %17 = getelementptr inbounds nuw %struct.SDL_AudioSpec, ptr %16, i32 0, i32 1
  %18 = load i32, ptr %17, align 4
  %19 = mul i32 %14, %18
  %20 = udiv i32 %8, %19
  store i32 %20, ptr %3, align 4
  %21 = load ptr, ptr %2, align 8
  %22 = getelementptr inbounds nuw %struct.SDL_AudioDevice, ptr %21, i32 0, i32 19
  %23 = call i32 @SDL_GetAtomicInt_REAL(ptr noundef %22)
  %24 = icmp ne i32 %23, 0
  br i1 %24, label %34, label %25

25:                                               ; preds = %5
  %26 = load i32, ptr %3, align 4
  %27 = mul nsw i32 %26, 1000
  %28 = load ptr, ptr %2, align 8
  %29 = getelementptr inbounds nuw %struct.SDL_AudioDevice, ptr %28, i32 0, i32 12
  %30 = getelementptr inbounds nuw %struct.SDL_AudioSpec, ptr %29, i32 0, i32 2
  %31 = load i32, ptr %30, align 8
  %32 = sdiv i32 %27, %31
  %33 = mul nsw i32 %32, 2
  call void @SDL_Delay_REAL(i32 noundef %33)
  br label %34

34:                                               ; preds = %25, %5
  %35 = load ptr, ptr getelementptr inbounds nuw (%struct.SDL_AudioDriverImpl, ptr getelementptr inbounds nuw (%struct.SDL_AudioDriver, ptr @current_audio, i32 0, i32 2), i32 0, i32 3), align 8
  %36 = load ptr, ptr %2, align 8
  call void %35(ptr noundef %36)
  %37 = load ptr, ptr %2, align 8
  call void @SDL_AudioThreadFinalize(ptr noundef %37)
  call void @llvm.lifetime.end.p0(i64 4, ptr %3) #6
  ret void
}