; Function Attrs: nounwind uwtable
define hidden void @SDL_PlaybackAudioThreadShutdown(ptr noundef %0) local_unnamed_addr #0 {
  %2 = getelementptr inbounds nuw i8, ptr %0, i64 108
  %3 = load i32, ptr %2, align 4
  %4 = getelementptr inbounds nuw i8, ptr %0, i64 96
  %5 = load i32, ptr %4, align 8
  %6 = getelementptr inbounds nuw i8, ptr %0, i64 100
  %7 = load i32, ptr %6, align 4
  %8 = getelementptr inbounds nuw i8, ptr %0, i64 144
  %9 = tail call i32 @SDL_GetAtomicInt_REAL(ptr noundef nonnull %8) #14
  %.not = icmp eq i32 %9, 0
  br i1 %.not, label %10, label %20

10:                                               ; preds = %1
  %11 = lshr i32 %5, 3
  %12 = and i32 %11, 31
  %13 = mul i32 %12, %7
  %14 = udiv i32 %3, %13
  %15 = mul nsw i32 %14, 1000
  %16 = getelementptr inbounds nuw i8, ptr %0, i64 104
  %17 = load i32, ptr %16, align 8
  %18 = sdiv i32 %15, %17
  %19 = shl nsw i32 %18, 1
  tail call void @SDL_Delay_REAL(i32 noundef %19) #14
  br label %20

20:                                               ; preds = %10, %1
  %21 = load ptr, ptr getelementptr inbounds nuw (i8, ptr @current_audio, i64 40), align 8
  tail call void %21(ptr noundef nonnull %0) #14
  ret void
}